target datalayout = "e-m:e-p270:32:32-p271:32:32-p272:64:64-i64:64-i128:128-f80:128-n8:16:32:64-S128"
target triple = "x86_64-pc-linux-gnu"

%struct.per_transfer = type { ptr, ptr, ptr, ptr, ptr, i64, i64, i64, i64, %struct.timeval, %struct.timeval, ptr, i32, ptr, i32, %struct.ProgressData, %struct.OutStruct, %struct.OutStruct, %struct.OutStruct, %struct.HdrCbData, i64, i64, i64, i64, i64, i64, i64, i64, i8, i8, ptr, ptr, i8, i8, i8, i8, i8, i8 }
%struct.timeval = type { i64, i64 }
%struct.ProgressData = type { i32, i64, %struct.timeval, i32, ptr, i64, i32, i32, i32 }
%struct.OutStruct = type { ptr, i8, i8, i8, i8, ptr, i64, i64 }
%struct.HdrCbData = type { ptr, ptr, ptr, ptr, ptr, ptr, i8 }
%struct.stat = type { i64, i64, i64, i32, i32, i32, i32, i64, i64, i64, i64, %struct.timespec, %struct.timespec, %struct.timespec, [3 x i64] }
%struct.timespec = type { i64, i64 }

@tool_stderr = external global ptr, align 8
@.str.26 = private unnamed_addr constant [17 x i8] c"cannot open '%s'\00", align 1
@.str.253 = private unnamed_addr constant [25 x i8] c"CURLOPT_INFILESIZE_LARGE\00", align 1

; Function Attrs: nounwind uwtable
define internal i32 @pre_transfer(ptr noundef %0, ptr noundef %1) #0 {
  %3 = alloca i32, align 4
  %4 = alloca ptr, align 8
  %5 = alloca ptr, align 8
  %6 = alloca i64, align 8
  %7 = alloca %struct.stat, align 8
  %8 = alloca i32, align 4
  %9 = alloca i32, align 4
  %10 = alloca ptr, align 8
  %11 = alloca %struct.timeval, align 8
  store ptr %0, ptr %4, align 8, !tbaa !18
  store ptr %1, ptr %5, align 8, !tbaa !53
  call void @llvm.lifetime.start.p0(i64 8, ptr %6) #10
  store i64 -1, ptr %6, align 8, !tbaa !40
  call void @llvm.lifetime.start.p0(i64 144, ptr %7) #10
  call void @llvm.lifetime.start.p0(i64 4, ptr %8) #10
  store i32 0, ptr %8, align 4, !tbaa !20
  %12 = load ptr, ptr %5, align 8, !tbaa !53
  %13 = getelementptr inbounds nuw %struct.per_transfer, ptr %12, i32 0, i32 30
  %14 = load ptr, ptr %13, align 8, !tbaa !138
  %15 = icmp ne ptr %14, null
  br i1 %15, label %16, label %83

16:                                               ; preds = %2
  %17 = load ptr, ptr %5, align 8, !tbaa !53
  %18 = getelementptr inbounds nuw %struct.per_transfer, ptr %17, i32 0, i32 30
  %19 = load ptr, ptr %18, align 8, !tbaa !138
  %20 = call zeroext i1 @stdin_upload(ptr noundef %19)
  br i1 %20, label %83, label %21

21:                                               ; preds = %16
  %22 = load ptr, ptr %5, align 8, !tbaa !53
  %23 = getelementptr inbounds nuw %struct.per_transfer, ptr %22, i32 0, i32 30
  %24 = load ptr, ptr %23, align 8, !tbaa !138
  %25 = call i32 (ptr, i32, ...) @open(ptr noundef %24, i32 noundef 0)
  %26 = load ptr, ptr %5, align 8, !tbaa !53
  %27 = getelementptr inbounds nuw %struct.per_transfer, ptr %26, i32 0, i32 14
  store i32 %25, ptr %27, align 8, !tbaa !95
  %28 = load ptr, ptr %5, align 8, !tbaa !53
  %29 = getelementptr inbounds nuw %struct.per_transfer, ptr %28, i32 0, i32 14
  %30 = load i32, ptr %29, align 8, !tbaa !95
  %31 = icmp eq i32 %30, -1
  br i1 %31, label %38, label %32

32:                                               ; preds = %21
  %33 = load ptr, ptr %5, align 8, !tbaa !53
  %34 = getelementptr inbounds nuw %struct.per_transfer, ptr %33, i32 0, i32 14
  %35 = load i32, ptr %34, align 8, !tbaa !95
  %36 = call i32 @fstat(i32 noundef %35, ptr noundef %7) #10
  %37 = icmp ne i32 %36, 0
  br i1 %37, label %38, label %55

38:                                               ; preds = %32, %21
  %39 = load ptr, ptr @tool_stderr, align 8, !tbaa !37
  %40 = load ptr, ptr %5, align 8, !tbaa !53
  %41 = getelementptr inbounds nuw %struct.per_transfer, ptr %40, i32 0, i32 30
  %42 = load ptr, ptr %41, align 8, !tbaa !138
  call void (ptr, ptr, ...) @helpf(ptr noundef %39, ptr noundef @.str.26, ptr noundef %42)
  %43 = load ptr, ptr %5, align 8, !tbaa !53
  %44 = getelementptr inbounds nuw %struct.per_transfer, ptr %43, i32 0, i32 14
  %45 = load i32, ptr %44, align 8, !tbaa !95
  %46 = icmp ne i32 %45, -1
  br i1 %46, label %47, label %54

47:                                               ; preds = %38
  %48 = load ptr, ptr %5, align 8, !tbaa !53
  %49 = getelementptr inbounds nuw %struct.per_transfer, ptr %48, i32 0, i32 14
  %50 = load i32, ptr %49, align 8, !tbaa !95
  %51 = call i32 @close(i32 noundef %50)
  %52 = load ptr, ptr %5, align 8, !tbaa !53
  %53 = getelementptr inbounds nuw %struct.per_transfer, ptr %52, i32 0, i32 14
  store i32 0, ptr %53, align 8, !tbaa !95
  br label %54

54:                                               ; preds = %47, %38
  store i32 26, ptr %3, align 4
  store i32 1, ptr %9, align 4
  br label %95

55:                                               ; preds = %32
  %56 = load ptr, ptr %5, align 8, !tbaa !53
  %57 = getelementptr inbounds nuw %struct.per_transfer, ptr %56, i32 0, i32 32
  store i8 1, ptr %57, align 8, !tbaa !94
  %58 = getelementptr inbounds nuw %struct.stat, ptr %7, i32 0, i32 3
  %59 = load i32, ptr %58, align 8, !tbaa !123
  %60 = and i32 %59, 61440
  %61 = icmp eq i32 %60, 32768
  br i1 %61, label %62, label %65

62:                                               ; preds = %55
  %63 = getelementptr inbounds nuw %struct.stat, ptr %7, i32 0, i32 8
  %64 = load i64, ptr %63, align 8, !tbaa !154
  store i64 %64, ptr %6, align 8, !tbaa !40
  br label %65

65:                                               ; preds = %62, %55
  %66 = load i64, ptr %6, align 8, !tbaa !40
  %67 = icmp ne i64 %66, -1
  br i1 %67, label %68, label %82

68:                                               ; preds = %65
  call void @llvm.lifetime.start.p0(i64 8, ptr %10) #10
  %69 = load ptr, ptr %5, align 8, !tbaa !53
  %70 = getelementptr inbounds nuw %struct.per_transfer, ptr %69, i32 0, i32 2
  %71 = load ptr, ptr %70, align 8, !tbaa !55
  store ptr %71, ptr %10, align 8, !tbaa !4
  br label %72

72:                                               ; preds = %68
  %73 = load ptr, ptr %5, align 8, !tbaa !53
  %74 = getelementptr inbounds nuw %struct.per_transfer, ptr %73, i32 0, i32 4
  %75 = load ptr, ptr %74, align 8, !tbaa !84
  %76 = load ptr, ptr %4, align 8, !tbaa !18
  %77 = load ptr, ptr %10, align 8, !tbaa !4
  %78 = load i64, ptr %6, align 8, !tbaa !40
  %79 = call i32 (ptr, i1, ptr, ptr, ptr, i32, ...) @tool_setopt(ptr noundef %75, i1 noundef zeroext false, ptr noundef %76, ptr noundef %77, ptr noundef @.str.253, i32 noundef 30115, i64 noundef %78)
  store i32 %79, ptr %8, align 4, !tbaa !20
  br label %80

80:                                               ; preds = %72
  br label %81

81:                                               ; preds = %80
  call void @llvm.lifetime.end.p0(i64 8, ptr %10) #10
  br label %82

82:                                               ; preds = %81, %65
  br label %83

83:                                               ; preds = %82, %16, %2
  %84 = load i64, ptr %6, align 8, !tbaa !40
  %85 = load ptr, ptr %5, align 8, !tbaa !53
  %86 = getelementptr inbounds nuw %struct.per_transfer, ptr %85, i32 0, i32 26
  store i64 %84, ptr %86, align 8, !tbaa !155
  %87 = load ptr, ptr %5, align 8, !tbaa !53
  %88 = getelementptr inbounds nuw %struct.per_transfer, ptr %87, i32 0, i32 9
  call void @llvm.lifetime.start.p0(i64 16, ptr %11) #10
  %89 = call { i64, i64 } @tvnow()
  %90 = getelementptr inbounds nuw { i64, i64 }, ptr %11, i32 0, i32 0
  %91 = extractvalue { i64, i64 } %89, 0
  store i64 %91, ptr %90, align 8
  %92 = getelementptr inbounds nuw { i64, i64 }, ptr %11, i32 0, i32 1
  %93 = extractvalue { i64, i64 } %89, 1
  store i64 %93, ptr %92, align 8
  call void @llvm.memcpy.p0.p0.i64(ptr align 8 %88, ptr align 8 %11, i64 16, i1 false), !tbaa.struct !71
  call void @llvm.lifetime.end.p0(i64 16, ptr %11) #10
  %94 = load i32, ptr %8, align 4, !tbaa !20
  store i32 %94, ptr %3, align 4
  store i32 1, ptr %9, align 4
  br label %95

95:                                               ; preds = %83, %54
  call void @llvm.lifetime.end.p0(i64 4, ptr %8) #10
  call void @llvm.lifetime.end.p0(i64 144, ptr %7) #10
  call void @llvm.lifetime.end.p0(i64 8, ptr %6) #10
  %96 = load i32, ptr %3, align 4
  ret i32 %96
}