; Function Attrs: nounwind uwtable
define internal fastcc i32 @pre_transfer(ptr noundef %0, ptr noundef nonnull captures(none) %1) unnamed_addr #0 {
  %3 = alloca %struct.stat, align 8
  call void @llvm.lifetime.start.p0(i64 144, ptr nonnull %3) #16
  %4 = getelementptr inbounds nuw i8, ptr %1, i64 456
  %5 = load ptr, ptr %4, align 8, !tbaa !129
  %.not = icmp eq ptr %5, null
  br i1 %.not, label %35, label %6

6:                                                ; preds = %2
  %7 = tail call zeroext i1 @stdin_upload(ptr noundef nonnull %5) #16
  br i1 %7, label %35, label %8

8:                                                ; preds = %6
  %9 = load ptr, ptr %4, align 8, !tbaa !129
  %10 = tail call i32 (ptr, i32, ...) @open(ptr noundef %9, i32 noundef 0) #16
  %11 = getelementptr inbounds nuw i8, ptr %1, i64 128
  store i32 %10, ptr %11, align 8, !tbaa !87
  %12 = icmp eq i32 %10, -1
  br i1 %12, label %15, label %13

13:                                               ; preds = %8
  %14 = call i32 @fstat(i32 noundef %10, ptr noundef nonnull %3) #16
  %.not26 = icmp eq i32 %14, 0
  br i1 %.not26, label %21, label %15

15:                                               ; preds = %13, %8
  %16 = load ptr, ptr @tool_stderr, align 8, !tbaa !30
  %17 = load ptr, ptr %4, align 8, !tbaa !129
  tail call void (ptr, ptr, ...) @helpf(ptr noundef %16, ptr noundef nonnull @.str.26, ptr noundef %17) #16
  %18 = load i32, ptr %11, align 8, !tbaa !87
  %.not28 = icmp eq i32 %18, -1
  br i1 %.not28, label %41, label %19

19:                                               ; preds = %15
  %20 = tail call i32 @close(i32 noundef %18) #16
  store i32 0, ptr %11, align 8, !tbaa !87
  br label %41

21:                                               ; preds = %13
  %22 = getelementptr inbounds nuw i8, ptr %1, i64 472
  store i8 1, ptr %22, align 8, !tbaa !86
  %23 = getelementptr inbounds nuw i8, ptr %3, i64 24
  %24 = load i32, ptr %23, align 8, !tbaa !114
  %25 = and i32 %24, 61440
  %26 = icmp ne i32 %25, 32768
  %27 = getelementptr inbounds nuw i8, ptr %3, i64 48
  %28 = load i64, ptr %27, align 8
  %.not2729 = icmp eq i64 %28, -1
  %.not27 = select i1 %26, i1 true, i1 %.not2729
  br i1 %.not27, label %35, label %29

29:                                               ; preds = %21
  %30 = getelementptr inbounds nuw i8, ptr %1, i64 16
  %31 = load ptr, ptr %30, align 8, !tbaa !84
  %32 = getelementptr inbounds nuw i8, ptr %1, i64 32
  %33 = load ptr, ptr %32, align 8, !tbaa !80
  %34 = tail call i32 (ptr, i1, ptr, ptr, ptr, i32, ...) @tool_setopt(ptr noundef %33, i1 noundef zeroext false, ptr noundef %0, ptr noundef %31, ptr noundef nonnull @.str.253, i32 noundef 30115, i64 noundef %28) #16
  br label %35

35:                                               ; preds = %21, %29, %6, %2
  %.022 = phi i32 [ 0, %6 ], [ %34, %29 ], [ 0, %21 ], [ 0, %2 ]
  %.021 = phi i64 [ -1, %6 ], [ %28, %29 ], [ -1, %21 ], [ -1, %2 ]
  %36 = getelementptr inbounds nuw i8, ptr %1, i64 432
  store i64 %.021, ptr %36, align 8, !tbaa !199
  %37 = getelementptr inbounds nuw i8, ptr %1, i64 72
  %38 = tail call { i64, i64 } @tvnow() #16
  %39 = extractvalue { i64, i64 } %38, 0
  %40 = extractvalue { i64, i64 } %38, 1
  store i64 %39, ptr %37, align 8, !tbaa !50
  %.sroa.4.0..sroa_idx = getelementptr inbounds nuw i8, ptr %1, i64 80
  store i64 %40, ptr %.sroa.4.0..sroa_idx, align 8, !tbaa !50
  br label %41

41:                                               ; preds = %15, %19, %35
  %.0 = phi i32 [ %.022, %35 ], [ 26, %19 ], [ 26, %15 ]
  call void @llvm.lifetime.end.p0(i64 144, ptr nonnull %3) #16
  ret i32 %.0
}